target datalayout = "e-m:e-p270:32:32-p271:32:32-p272:64:64-i64:64-i128:128-f80:128-n8:16:32:64-S128"
target triple = "x86_64-pc-linux-gnu"

%struct.FunctionCallInfoBaseData = type { ptr, ptr, ptr, i32, i8, i16, [0 x %struct.NullableDatum] }
%struct.NullableDatum = type { i64, i8 }
%struct.varattrib_1b = type { i8, [0 x i8] }
%struct.anon = type { i32, [0 x i8] }
%struct.inet_struct = type { i8, i8, [16 x i8] }

@.str.1 = private unnamed_addr constant [10 x i8] c"network.c\00", align 1
@.str.2 = private unnamed_addr constant [24 x i8] c"invalid mask length: %d\00", align 1
@__func__.cidr_set_masklen = private unnamed_addr constant [17 x i8] c"cidr_set_masklen\00", align 1

; Function Attrs: inlinehint nounwind uwtable
define internal i64 @PointerGetDatum(ptr noundef %0) #2 {
  %2 = alloca ptr, align 8
  store ptr %0, ptr %2, align 8
  %3 = load ptr, ptr %2, align 8
  %4 = ptrtoint ptr %3 to i64
  ret i64 %4
}

; Function Attrs: inlinehint nounwind uwtable
define internal ptr @DatumGetPointer(i64 noundef %0) #2 {
  %2 = alloca i64, align 8
  store i64 %0, ptr %2, align 8
  %3 = load i64, ptr %2, align 8
  %4 = inttoptr i64 %3 to ptr
  ret ptr %4
}

; Function Attrs: inlinehint nounwind uwtable
define internal i64 @InetPGetDatum(ptr noundef %0) #2 {
  %2 = alloca ptr, align 8
  store ptr %0, ptr %2, align 8
  %3 = load ptr, ptr %2, align 8
  %4 = call i64 @PointerGetDatum(ptr noundef %3)
  ret i64 %4
}

; Function Attrs: nounwind uwtable
define dso_local ptr @cidr_set_masklen_internal(ptr noundef %0, i32 noundef %1) #0 {
  %3 = alloca ptr, align 8
  %4 = alloca i32, align 4
  %5 = alloca ptr, align 8
  store ptr %0, ptr %3, align 8
  store i32 %1, ptr %4, align 4
  call void @llvm.lifetime.start.p0(i64 8, ptr %5) #8
  %6 = call ptr @palloc0(i64 noundef 22)
  store ptr %6, ptr %5, align 8
  %7 = load ptr, ptr %3, align 8
  %8 = getelementptr inbounds nuw %struct.varattrib_1b, ptr %7, i32 0, i32 0
  %9 = load i8, ptr %8, align 1
  %10 = zext i8 %9 to i32
  %11 = and i32 %10, 1
  %12 = icmp eq i32 %11, 1
  br i1 %12, label %13, label %17

13:                                               ; preds = %2
  %14 = load ptr, ptr %3, align 8
  %15 = getelementptr inbounds nuw %struct.varattrib_1b, ptr %14, i32 0, i32 1
  %16 = getelementptr inbounds [0 x i8], ptr %15, i64 0, i64 0
  br label %21

17:                                               ; preds = %2
  %18 = load ptr, ptr %3, align 8
  %19 = getelementptr inbounds nuw %struct.anon, ptr %18, i32 0, i32 1
  %20 = getelementptr inbounds [0 x i8], ptr %19, i64 0, i64 0
  br label %21

21:                                               ; preds = %17, %13
  %22 = phi ptr [ %16, %13 ], [ %20, %17 ]
  %23 = getelementptr inbounds nuw %struct.inet_struct, ptr %22, i32 0, i32 0
  %24 = load i8, ptr %23, align 1
  %25 = load ptr, ptr %5, align 8
  %26 = getelementptr inbounds nuw %struct.varattrib_1b, ptr %25, i32 0, i32 0
  %27 = load i8, ptr %26, align 1
  %28 = zext i8 %27 to i32
  %29 = and i32 %28, 1
  %30 = icmp eq i32 %29, 1
  br i1 %30, label %31, label %35

31:                                               ; preds = %21
  %32 = load ptr, ptr %5, align 8
  %33 = getelementptr inbounds nuw %struct.varattrib_1b, ptr %32, i32 0, i32 1
  %34 = getelementptr inbounds [0 x i8], ptr %33, i64 0, i64 0
  br label %39

35:                                               ; preds = %21
  %36 = load ptr, ptr %5, align 8
  %37 = getelementptr inbounds nuw %struct.anon, ptr %36, i32 0, i32 1
  %38 = getelementptr inbounds [0 x i8], ptr %37, i64 0, i64 0
  br label %39

39:                                               ; preds = %35, %31
  %40 = phi ptr [ %34, %31 ], [ %38, %35 ]
  %41 = getelementptr inbounds nuw %struct.inet_struct, ptr %40, i32 0, i32 0
  store i8 %24, ptr %41, align 1
  %42 = load i32, ptr %4, align 4
  %43 = trunc i32 %42 to i8
  %44 = load ptr, ptr %5, align 8
  %45 = getelementptr inbounds nuw %struct.varattrib_1b, ptr %44, i32 0, i32 0
  %46 = load i8, ptr %45, align 1
  %47 = zext i8 %46 to i32
  %48 = and i32 %47, 1
  %49 = icmp eq i32 %48, 1
  br i1 %49, label %50, label %54

50:                                               ; preds = %39
  %51 = load ptr, ptr %5, align 8
  %52 = getelementptr inbounds nuw %struct.varattrib_1b, ptr %51, i32 0, i32 1
  %53 = getelementptr inbounds [0 x i8], ptr %52, i64 0, i64 0
  br label %58

54:                                               ; preds = %39
  %55 = load ptr, ptr %5, align 8
  %56 = getelementptr inbounds nuw %struct.anon, ptr %55, i32 0, i32 1
  %57 = getelementptr inbounds [0 x i8], ptr %56, i64 0, i64 0
  br label %58

58:                                               ; preds = %54, %50
  %59 = phi ptr [ %53, %50 ], [ %57, %54 ]
  %60 = getelementptr inbounds nuw %struct.inet_struct, ptr %59, i32 0, i32 1
  store i8 %43, ptr %60, align 1
  %61 = load i32, ptr %4, align 4
  %62 = icmp sgt i32 %61, 0
  br i1 %62, label %63, label %138

63:                                               ; preds = %58
  %64 = load ptr, ptr %5, align 8
  %65 = getelementptr inbounds nuw %struct.varattrib_1b, ptr %64, i32 0, i32 0
  %66 = load i8, ptr %65, align 1
  %67 = zext i8 %66 to i32
  %68 = and i32 %67, 1
  %69 = icmp eq i32 %68, 1
  br i1 %69, label %70, label %74

70:                                               ; preds = %63
  %71 = load ptr, ptr %5, align 8
  %72 = getelementptr inbounds nuw %struct.varattrib_1b, ptr %71, i32 0, i32 1
  %73 = getelementptr inbounds [0 x i8], ptr %72, i64 0, i64 0
  br label %78

74:                                               ; preds = %63
  %75 = load ptr, ptr %5, align 8
  %76 = getelementptr inbounds nuw %struct.anon, ptr %75, i32 0, i32 1
  %77 = getelementptr inbounds [0 x i8], ptr %76, i64 0, i64 0
  br label %78

78:                                               ; preds = %74, %70
  %79 = phi ptr [ %73, %70 ], [ %77, %74 ]
  %80 = getelementptr inbounds nuw %struct.inet_struct, ptr %79, i32 0, i32 2
  %81 = getelementptr inbounds [16 x i8], ptr %80, i64 0, i64 0
  %82 = load ptr, ptr %3, align 8
  %83 = getelementptr inbounds nuw %struct.varattrib_1b, ptr %82, i32 0, i32 0
  %84 = load i8, ptr %83, align 1
  %85 = zext i8 %84 to i32
  %86 = and i32 %85, 1
  %87 = icmp eq i32 %86, 1
  br i1 %87, label %88, label %92

88:                                               ; preds = %78
  %89 = load ptr, ptr %3, align 8
  %90 = getelementptr inbounds nuw %struct.varattrib_1b, ptr %89, i32 0, i32 1
  %91 = getelementptr inbounds [0 x i8], ptr %90, i64 0, i64 0
  br label %96

92:                                               ; preds = %78
  %93 = load ptr, ptr %3, align 8
  %94 = getelementptr inbounds nuw %struct.anon, ptr %93, i32 0, i32 1
  %95 = getelementptr inbounds [0 x i8], ptr %94, i64 0, i64 0
  br label %96

96:                                               ; preds = %92, %88
  %97 = phi ptr [ %91, %88 ], [ %95, %92 ]
  %98 = getelementptr inbounds nuw %struct.inet_struct, ptr %97, i32 0, i32 2
  %99 = getelementptr inbounds [16 x i8], ptr %98, i64 0, i64 0
  %100 = load i32, ptr %4, align 4
  %101 = add i32 %100, 7
  %102 = sdiv i32 %101, 8
  %103 = sext i32 %102 to i64
  call void @llvm.memcpy.p0.p0.i64(ptr align 1 %81, ptr align 1 %99, i64 %103, i1 false)
  %104 = load i32, ptr %4, align 4
  %105 = srem i32 %104, 8
  %106 = icmp ne i32 %105, 0
  br i1 %106, label %107, label %137

107:                                              ; preds = %96
  %108 = load i32, ptr %4, align 4
  %109 = srem i32 %108, 8
  %110 = ashr i32 255, %109
  %111 = xor i32 %110, -1
  %112 = load ptr, ptr %5, align 8
  %113 = getelementptr inbounds nuw %struct.varattrib_1b, ptr %112, i32 0, i32 0
  %114 = load i8, ptr %113, align 1
  %115 = zext i8 %114 to i32
  %116 = and i32 %115, 1
  %117 = icmp eq i32 %116, 1
  br i1 %117, label %118, label %122

118:                                              ; preds = %107
  %119 = load ptr, ptr %5, align 8
  %120 = getelementptr inbounds nuw %struct.varattrib_1b, ptr %119, i32 0, i32 1
  %121 = getelementptr inbounds [0 x i8], ptr %120, i64 0, i64 0
  br label %126

122:                                              ; preds = %107
  %123 = load ptr, ptr %5, align 8
  %124 = getelementptr inbounds nuw %struct.anon, ptr %123, i32 0, i32 1
  %125 = getelementptr inbounds [0 x i8], ptr %124, i64 0, i64 0
  br label %126

126:                                              ; preds = %122, %118
  %127 = phi ptr [ %121, %118 ], [ %125, %122 ]
  %128 = getelementptr inbounds nuw %struct.inet_struct, ptr %127, i32 0, i32 2
  %129 = load i32, ptr %4, align 4
  %130 = sdiv i32 %129, 8
  %131 = sext i32 %130 to i64
  %132 = getelementptr inbounds [16 x i8], ptr %128, i64 0, i64 %131
  %133 = load i8, ptr %132, align 1
  %134 = zext i8 %133 to i32
  %135 = and i32 %134, %111
  %136 = trunc i32 %135 to i8
  store i8 %136, ptr %132, align 1
  br label %137

137:                                              ; preds = %126, %96
  br label %138

138:                                              ; preds = %137, %58
  %139 = load ptr, ptr %5, align 8
  %140 = getelementptr inbounds nuw %struct.varattrib_1b, ptr %139, i32 0, i32 0
  %141 = load i8, ptr %140, align 1
  %142 = zext i8 %141 to i32
  %143 = and i32 %142, 1
  %144 = icmp eq i32 %143, 1
  br i1 %144, label %145, label %149

145:                                              ; preds = %138
  %146 = load ptr, ptr %5, align 8
  %147 = getelementptr inbounds nuw %struct.varattrib_1b, ptr %146, i32 0, i32 1
  %148 = getelementptr inbounds [0 x i8], ptr %147, i64 0, i64 0
  br label %153

149:                                              ; preds = %138
  %150 = load ptr, ptr %5, align 8
  %151 = getelementptr inbounds nuw %struct.anon, ptr %150, i32 0, i32 1
  %152 = getelementptr inbounds [0 x i8], ptr %151, i64 0, i64 0
  br label %153

153:                                              ; preds = %149, %145
  %154 = phi ptr [ %148, %145 ], [ %152, %149 ]
  %155 = getelementptr inbounds nuw %struct.inet_struct, ptr %154, i32 0, i32 0
  %156 = load i8, ptr %155, align 1
  %157 = zext i8 %156 to i32
  %158 = icmp eq i32 %157, 2
  %159 = select i1 %158, i32 4, i32 16
  %160 = sext i32 %159 to i64
  %161 = add i64 6, %160
  %162 = trunc i64 %161 to i32
  %163 = shl i32 %162, 2
  %164 = load ptr, ptr %5, align 8
  %165 = getelementptr inbounds nuw %struct.anon, ptr %164, i32 0, i32 0
  store i32 %163, ptr %165, align 4
  %166 = load ptr, ptr %5, align 8
  call void @llvm.lifetime.end.p0(i64 8, ptr %5) #8
  ret ptr %166
}

; Function Attrs: inlinehint nounwind uwtable
define internal i32 @DatumGetInt32(i64 noundef %0) #2 {
  %2 = alloca i64, align 8
  store i64 %0, ptr %2, align 8
  %3 = load i64, ptr %2, align 8
  %4 = trunc i64 %3 to i32
  ret i32 %4
}

; Function Attrs: inlinehint nounwind uwtable
define internal ptr @DatumGetInetPP(i64 noundef %0) #2 {
  %2 = alloca i64, align 8
  store i64 %0, ptr %2, align 8
  %3 = load i64, ptr %2, align 8
  %4 = call ptr @DatumGetPointer(i64 noundef %3)
  %5 = call ptr @pg_detoast_datum_packed(ptr noundef %4)
  ret ptr %5
}

; Function Attrs: nounwind uwtable
define dso_local i64 @cidr_set_masklen(ptr noundef %0) #0 {
  %2 = alloca ptr, align 8
  %3 = alloca ptr, align 8
  %4 = alloca i32, align 4
  store ptr %0, ptr %2, align 8
  call void @llvm.lifetime.start.p0(i64 8, ptr %3) #8
  %5 = load ptr, ptr %2, align 8
  %6 = getelementptr inbounds nuw %struct.FunctionCallInfoBaseData, ptr %5, i32 0, i32 6
  %7 = getelementptr inbounds [0 x %struct.NullableDatum], ptr %6, i64 0, i64 0
  %8 = getelementptr inbounds nuw %struct.NullableDatum, ptr %7, i32 0, i32 0
  %9 = load i64, ptr %8, align 8
  %10 = call ptr @DatumGetInetPP(i64 noundef %9)
  store ptr %10, ptr %3, align 8
  call void @llvm.lifetime.start.p0(i64 4, ptr %4) #8
  %11 = load ptr, ptr %2, align 8
  %12 = getelementptr inbounds nuw %struct.FunctionCallInfoBaseData, ptr %11, i32 0, i32 6
  %13 = getelementptr inbounds [0 x %struct.NullableDatum], ptr %12, i64 0, i64 1
  %14 = getelementptr inbounds nuw %struct.NullableDatum, ptr %13, i32 0, i32 0
  %15 = load i64, ptr %14, align 8
  %16 = call i32 @DatumGetInt32(i64 noundef %15)
  store i32 %16, ptr %4, align 4
  %17 = load i32, ptr %4, align 4
  %18 = icmp eq i32 %17, -1
  br i1 %18, label %19, label %41

19:                                               ; preds = %1
  %20 = load ptr, ptr %3, align 8
  %21 = getelementptr inbounds nuw %struct.varattrib_1b, ptr %20, i32 0, i32 0
  %22 = load i8, ptr %21, align 1
  %23 = zext i8 %22 to i32
  %24 = and i32 %23, 1
  %25 = icmp eq i32 %24, 1
  br i1 %25, label %26, label %30

26:                                               ; preds = %19
  %27 = load ptr, ptr %3, align 8
  %28 = getelementptr inbounds nuw %struct.varattrib_1b, ptr %27, i32 0, i32 1
  %29 = getelementptr inbounds [0 x i8], ptr %28, i64 0, i64 0
  br label %34

30:                                               ; preds = %19
  %31 = load ptr, ptr %3, align 8
  %32 = getelementptr inbounds nuw %struct.anon, ptr %31, i32 0, i32 1
  %33 = getelementptr inbounds [0 x i8], ptr %32, i64 0, i64 0
  br label %34

34:                                               ; preds = %30, %26
  %35 = phi ptr [ %29, %26 ], [ %33, %30 ]
  %36 = getelementptr inbounds nuw %struct.inet_struct, ptr %35, i32 0, i32 0
  %37 = load i8, ptr %36, align 1
  %38 = zext i8 %37 to i32
  %39 = icmp eq i32 %38, 2
  %40 = select i1 %39, i32 32, i32 128
  store i32 %40, ptr %4, align 4
  br label %41

41:                                               ; preds = %34, %1
  %42 = load i32, ptr %4, align 4
  %43 = icmp slt i32 %42, 0
  br i1 %43, label %68, label %44

44:                                               ; preds = %41
  %45 = load i32, ptr %4, align 4
  %46 = load ptr, ptr %3, align 8
  %47 = getelementptr inbounds nuw %struct.varattrib_1b, ptr %46, i32 0, i32 0
  %48 = load i8, ptr %47, align 1
  %49 = zext i8 %48 to i32
  %50 = and i32 %49, 1
  %51 = icmp eq i32 %50, 1
  br i1 %51, label %52, label %56

52:                                               ; preds = %44
  %53 = load ptr, ptr %3, align 8
  %54 = getelementptr inbounds nuw %struct.varattrib_1b, ptr %53, i32 0, i32 1
  %55 = getelementptr inbounds [0 x i8], ptr %54, i64 0, i64 0
  br label %60

56:                                               ; preds = %44
  %57 = load ptr, ptr %3, align 8
  %58 = getelementptr inbounds nuw %struct.anon, ptr %57, i32 0, i32 1
  %59 = getelementptr inbounds [0 x i8], ptr %58, i64 0, i64 0
  br label %60

60:                                               ; preds = %56, %52
  %61 = phi ptr [ %55, %52 ], [ %59, %56 ]
  %62 = getelementptr inbounds nuw %struct.inet_struct, ptr %61, i32 0, i32 0
  %63 = load i8, ptr %62, align 1
  %64 = zext i8 %63 to i32
  %65 = icmp eq i32 %64, 2
  %66 = select i1 %65, i32 32, i32 128
  %67 = icmp sgt i32 %45, %66
  br i1 %67, label %68, label %81

68:                                               ; preds = %60, %41
  br label %69

69:                                               ; preds = %68
  br i1 true, label %70, label %72

70:                                               ; preds = %69
  %71 = call zeroext i1 @errstart_cold(i32 noundef 21, ptr noundef null) #10
  br i1 %71, label %74, label %78

72:                                               ; preds = %69
  %73 = call zeroext i1 @errstart(i32 noundef 21, ptr noundef null)
  br i1 %73, label %74, label %78

74:                                               ; preds = %72, %70
  %75 = call i32 @errcode(i32 noundef 50856066)
  %76 = load i32, ptr %4, align 4
  %77 = call i32 (ptr, ...) @errmsg(ptr noundef @.str.2, i32 noundef %76)
  call void @errfinish(ptr noundef @.str.1, i32 noundef 359, ptr noundef @__func__.cidr_set_masklen)
  br label %78

78:                                               ; preds = %74, %72, %70
  unreachable

79:                                               ; No predecessors!
  br label %80

80:                                               ; preds = %79
  br label %81

81:                                               ; preds = %80, %60
  %82 = load ptr, ptr %3, align 8
  %83 = load i32, ptr %4, align 4
  %84 = call ptr @cidr_set_masklen_internal(ptr noundef %82, i32 noundef %83)
  %85 = call i64 @InetPGetDatum(ptr noundef %84)
  call void @llvm.lifetime.end.p0(i64 4, ptr %4) #8
  call void @llvm.lifetime.end.p0(i64 8, ptr %3) #8
  ret i64 %85
}