; Function Attrs: nounwind uwtable
define dso_local noundef i64 @cidr_set_masklen(ptr noundef readonly captures(none) %0) local_unnamed_addr #0 {
  %2 = getelementptr inbounds nuw i8, ptr %0, i64 32
  %3 = load i64, ptr %2, align 8
  %4 = inttoptr i64 %3 to ptr
  %5 = tail call ptr @pg_detoast_datum_packed(ptr noundef %4) #14
  %6 = getelementptr inbounds nuw i8, ptr %0, i64 48
  %7 = load i64, ptr %6, align 8
  %8 = trunc i64 %7 to i32
  %9 = icmp eq i32 %8, -1
  br i1 %9, label %.thread, label %16

.thread:                                          ; preds = %1
  %10 = load i8, ptr %5, align 1
  %11 = and i8 %10, 1
  %.not = icmp eq i8 %11, 0
  %.v = select i1 %.not, i64 4, i64 1
  %12 = getelementptr inbounds nuw i8, ptr %5, i64 %.v
  %13 = load i8, ptr %12, align 1
  %14 = icmp eq i8 %13, 2
  %15 = select i1 %14, i32 32, i32 128
  br label %18

16:                                               ; preds = %1
  %17 = icmp slt i32 %8, 0
  br i1 %17, label %24, label %._crit_edge

._crit_edge:                                      ; preds = %16
  %.pre = load i8, ptr %5, align 1
  %.pre20 = and i8 %.pre, 1
  br label %18

18:                                               ; preds = %._crit_edge, %.thread
  %.pre-phi = phi i8 [ %.pre20, %._crit_edge ], [ %11, %.thread ]
  %.017 = phi i32 [ %8, %._crit_edge ], [ %15, %.thread ]
  %.not14 = icmp eq i8 %.pre-phi, 0
  %.v15 = select i1 %.not14, i64 4, i64 1
  %19 = getelementptr inbounds nuw i8, ptr %5, i64 %.v15
  %20 = load i8, ptr %19, align 1
  %21 = icmp eq i8 %20, 2
  %22 = select i1 %21, i32 32, i32 128
  %23 = icmp samesign ugt i32 %.017, %22
  br i1 %23, label %24, label %28

24:                                               ; preds = %18, %16
  %.018 = phi i32 [ %.017, %18 ], [ %8, %16 ]
  %25 = tail call zeroext i1 @errstart_cold(i32 noundef 21, ptr noundef null) #16
  tail call void @llvm.assume(i1 %25)
  %26 = tail call i32 @errcode(i32 noundef 50856066) #14
  %27 = tail call i32 (ptr, ...) @errmsg(ptr noundef nonnull @.str.2, i32 noundef %.018) #14
  tail call void @errfinish(ptr noundef nonnull @.str.1, i32 noundef 359, ptr noundef nonnull @__func__.cidr_set_masklen) #14
  unreachable

28:                                               ; preds = %18
  %29 = tail call ptr @palloc0(i64 noundef 22) #14
  %30 = load i8, ptr %5, align 1
  %31 = and i8 %30, 1
  %.not.i = icmp eq i8 %31, 0
  %32 = getelementptr inbounds nuw i8, ptr %5, i64 1
  %33 = getelementptr inbounds nuw i8, ptr %5, i64 4
  %34 = select i1 %.not.i, ptr %33, ptr %32
  %35 = load i8, ptr %34, align 1
  %36 = load i8, ptr %29, align 1
  %37 = and i8 %36, 1
  %.not29.i = icmp eq i8 %37, 0
  %38 = getelementptr inbounds nuw i8, ptr %29, i64 1
  %39 = getelementptr inbounds nuw i8, ptr %29, i64 4
  %40 = select i1 %.not29.i, ptr %39, ptr %38
  store i8 %35, ptr %40, align 1
  %41 = trunc i32 %.017 to i8
  %42 = getelementptr inbounds nuw i8, ptr %40, i64 1
  store i8 %41, ptr %42, align 1
  %.not19 = icmp eq i32 %.017, 0
  br i1 %.not19, label %cidr_set_masklen_internal.exit, label %43

43:                                               ; preds = %28
  %44 = load i8, ptr %29, align 1
  %45 = and i8 %44, 1
  %.not31.i = icmp eq i8 %45, 0
  %46 = select i1 %.not31.i, ptr %39, ptr %38
  %47 = getelementptr inbounds nuw i8, ptr %46, i64 2
  %48 = load i8, ptr %5, align 1
  %49 = and i8 %48, 1
  %.not32.i = icmp eq i8 %49, 0
  %50 = select i1 %.not32.i, ptr %33, ptr %32
  %51 = getelementptr inbounds nuw i8, ptr %50, i64 2
  %.lhs.trunc = add nuw nsw i32 %.017, 7
  %52 = lshr i32 %.lhs.trunc, 3
  %53 = zext nneg i32 %52 to i64
  tail call void @llvm.memcpy.p0.p0.i64(ptr nonnull align 1 %47, ptr nonnull align 1 %51, i64 %53, i1 false)
  %54 = and i32 %.017, 7
  %.not33.i = icmp eq i32 %54, 0
  br i1 %.not33.i, label %cidr_set_masklen_internal.exit, label %55

55:                                               ; preds = %43
  %56 = ashr exact i32 -256, %54
  %57 = load i8, ptr %29, align 1
  %58 = and i8 %57, 1
  %.not34.i = icmp eq i8 %58, 0
  %59 = select i1 %.not34.i, ptr %39, ptr %38
  %60 = getelementptr inbounds nuw i8, ptr %59, i64 2
  %61 = lshr i32 %.017, 3
  %62 = zext nneg i32 %61 to i64
  %63 = getelementptr inbounds nuw [16 x i8], ptr %60, i64 0, i64 %62
  %64 = load i8, ptr %63, align 1
  %65 = trunc i32 %56 to i8
  %66 = and i8 %64, %65
  store i8 %66, ptr %63, align 1
  br label %cidr_set_masklen_internal.exit

cidr_set_masklen_internal.exit:                   ; preds = %28, %43, %55
  %67 = load i8, ptr %29, align 1
  %68 = and i8 %67, 1
  %.not35.i = icmp eq i8 %68, 0
  %69 = select i1 %.not35.i, ptr %39, ptr %38
  %70 = load i8, ptr %69, align 1
  %71 = icmp eq i8 %70, 2
  %72 = select i1 %71, i32 40, i32 88
  store i32 %72, ptr %29, align 4
  %73 = ptrtoint ptr %29 to i64
  ret i64 %73
}